target datalayout = "e-m:e-p270:32:32-p271:32:32-p272:64:64-i64:64-i128:128-f80:128-n8:16:32:64-S128"
target triple = "x86_64-pc-linux-gnu"

; Function Attrs: nounwind uwtable
define internal ptr @dsa_load(ptr noundef %0, i64 noundef %1) #0 {
  %3 = alloca ptr, align 8
  %4 = alloca ptr, align 8
  %5 = alloca i64, align 8
  %6 = alloca ptr, align 8
  %7 = alloca i32, align 4
  store ptr %0, ptr %4, align 8, !tbaa !3
  store i64 %1, ptr %5, align 8, !tbaa !48
  call void @llvm.lifetime.start.p0(i64 8, ptr %6) #7
  store ptr null, ptr %6, align 8, !tbaa !27
  %8 = call i32 @ossl_prov_is_running()
  %9 = icmp ne i32 %8, 0
  br i1 %9, label %10, label %18

10:                                               ; preds = %2
  %11 = load i64, ptr %5, align 8, !tbaa !48
  %12 = icmp eq i64 %11, 8
  br i1 %12, label %13, label %18

13:                                               ; preds = %10
  %14 = load ptr, ptr %4, align 8, !tbaa !3
  %15 = load ptr, ptr %14, align 8, !tbaa !27
  store ptr %15, ptr %6, align 8, !tbaa !27
  %16 = load ptr, ptr %4, align 8, !tbaa !3
  store ptr null, ptr %16, align 8, !tbaa !27
  %17 = load ptr, ptr %6, align 8, !tbaa !27
  store ptr %17, ptr %3, align 8
  store i32 1, ptr %7, align 4
  br label %19

18:                                               ; preds = %10, %2
  store ptr null, ptr %3, align 8
  store i32 1, ptr %7, align 4
  br label %19

19:                                               ; preds = %18, %13
  call void @llvm.lifetime.end.p0(i64 8, ptr %6) #7
  %20 = load ptr, ptr %3, align 8
  ret ptr %20
}