; Function Attrs: nounwind uwtable
define internal ptr @dsa_load(ptr noundef captures(none) %0, i64 noundef %1) #0 {
  %3 = tail call i32 @ossl_prov_is_running() #7
  %4 = icmp ne i32 %3, 0
  %5 = icmp eq i64 %1, 8
  %or.cond = and i1 %5, %4
  br i1 %or.cond, label %6, label %8

6:                                                ; preds = %2
  %7 = load ptr, ptr %0, align 8, !tbaa !43
  store ptr null, ptr %0, align 8, !tbaa !43
  br label %8

8:                                                ; preds = %2, %6
  %.0 = phi ptr [ %7, %6 ], [ null, %2 ]
  ret ptr %.0
}